; ModuleID = '43/1687.c'
source_filename = "43/1687.c"
target datalayout = "e-m:e-p270:32:32-p271:32:32-p272:64:64-i64:64-f80:128-n8:16:32:64-S128"
target triple = "x86_64-pc-linux-gnu"

@.str = private unnamed_addr constant [3 x i8] c"%d\00", align 1
@.str.1 = private unnamed_addr constant [7 x i8] c"%d %d\0A\00", align 1

; Function Attrs: noinline nounwind uwtable
define dso_local i32 @main() #0 {
  %1 = alloca i32, align 4
  %2 = alloca i32, align 4
  %3 = alloca i32, align 4
  %4 = alloca i32, align 4
  %5 = alloca i32, align 4
  %6 = alloca [10000 x i32], align 16
  store i32 0, i32* %1, align 4
  %7 = bitcast [10000 x i32]* %6 to i8*
  call void @llvm.memset.p0i8.i64(i8* align 16 %7, i8 0, i64 40000, i1 false)
  store i32 0, i32* %2, align 4
  br label %8

8:                                                ; preds = %21, %0
  %9 = load i32, i32* %2, align 4
  %10 = icmp slt i32 %9, 10000
  br i1 %10, label %11, label %24

11:                                               ; preds = %8
  %12 = load i32, i32* %2, align 4
  %13 = srem i32 %12, 2
  %14 = icmp ne i32 %13, 0
  br i1 %14, label %15, label %20

15:                                               ; preds = %11
  %16 = load i32, i32* %2, align 4
  %17 = load i32, i32* %2, align 4
  %18 = sext i32 %17 to i64
  %19 = getelementptr inbounds [10000 x i32], [10000 x i32]* %6, i64 0, i64 %18
  store i32 %16, i32* %19, align 4
  br label %20

20:                                               ; preds = %15, %11
  br label %21

21:                                               ; preds = %20
  %22 = load i32, i32* %2, align 4
  %23 = add nsw i32 %22, 1
  store i32 %23, i32* %2, align 4
  br label %8

24:                                               ; preds = %8
  store i32 3, i32* %2, align 4
  br label %25

25:                                               ; preds = %52, %24
  %26 = load i32, i32* %2, align 4
  %27 = icmp slt i32 %26, 100
  br i1 %27, label %28, label %55

28:                                               ; preds = %25
  %29 = load i32, i32* %2, align 4
  %30 = add nsw i32 %29, 2
  store i32 %30, i32* %3, align 4
  br label %31

31:                                               ; preds = %48, %28
  %32 = load i32, i32* %3, align 4
  %33 = icmp slt i32 %32, 10000
  br i1 %33, label %34, label %51

34:                                               ; preds = %31
  %35 = load i32, i32* %3, align 4
  %36 = sext i32 %35 to i64
  %37 = getelementptr inbounds [10000 x i32], [10000 x i32]* %6, i64 0, i64 %36
  %38 = load i32, i32* %37, align 4
  %39 = icmp ne i32 %38, 0
  br i1 %39, label %40, label %47

40:                                               ; preds = %34
  %41 = load i32, i32* %3, align 4
  %42 = load i32, i32* %2, align 4
  %43 = srem i32 %41, %42
  %44 = load i32, i32* %3, align 4
  %45 = sext i32 %44 to i64
  %46 = getelementptr inbounds [10000 x i32], [10000 x i32]* %6, i64 0, i64 %45
  store i32 %43, i32* %46, align 4
  br label %47

47:                                               ; preds = %40, %34
  br label %48

48:                                               ; preds = %47
  %49 = load i32, i32* %3, align 4
  %50 = add nsw i32 %49, 1
  store i32 %50, i32* %3, align 4
  br label %31

51:                                               ; preds = %31
  br label %52

52:                                               ; preds = %51
  %53 = load i32, i32* %2, align 4
  %54 = add nsw i32 %53, 2
  store i32 %54, i32* %2, align 4
  br label %25

55:                                               ; preds = %25
  store i32 0, i32* %2, align 4
  br label %56

56:                                               ; preds = %71, %55
  %57 = load i32, i32* %2, align 4
  %58 = icmp slt i32 %57, 10000
  br i1 %58, label %59, label %74

59:                                               ; preds = %56
  %60 = load i32, i32* %2, align 4
  %61 = sext i32 %60 to i64
  %62 = getelementptr inbounds [10000 x i32], [10000 x i32]* %6, i64 0, i64 %61
  %63 = load i32, i32* %62, align 4
  %64 = icmp ne i32 %63, 0
  br i1 %64, label %65, label %70

65:                                               ; preds = %59
  %66 = load i32, i32* %2, align 4
  %67 = load i32, i32* %2, align 4
  %68 = sext i32 %67 to i64
  %69 = getelementptr inbounds [10000 x i32], [10000 x i32]* %6, i64 0, i64 %68
  store i32 %66, i32* %69, align 4
  br label %70

70:                                               ; preds = %65, %59
  br label %71

71:                                               ; preds = %70
  %72 = load i32, i32* %2, align 4
  %73 = add nsw i32 %72, 1
  store i32 %73, i32* %2, align 4
  br label %56

74:                                               ; preds = %56
  %75 = call i32 (i8*, ...) @__isoc99_scanf(i8* getelementptr inbounds ([3 x i8], [3 x i8]* @.str, i64 0, i64 0), i32* %5)
  store i32 3, i32* %2, align 4
  br label %76

76:                                               ; preds = %112, %74
  %77 = load i32, i32* %2, align 4
  %78 = load i32, i32* %5, align 4
  %79 = sdiv i32 %78, 2
  %80 = add nsw i32 %79, 1
  %81 = icmp slt i32 %77, %80
  br i1 %81, label %82, label %115

82:                                               ; preds = %76
  %83 = load i32, i32* %2, align 4
  %84 = sext i32 %83 to i64
  %85 = getelementptr inbounds [10000 x i32], [10000 x i32]* %6, i64 0, i64 %84
  %86 = load i32, i32* %85, align 4
  %87 = icmp ne i32 %86, 0
  br i1 %87, label %88, label %111

88:                                               ; preds = %82
  %89 = load i32, i32* %5, align 4
  %90 = load i32, i32* %2, align 4
  %91 = sext i32 %90 to i64
  %92 = getelementptr inbounds [10000 x i32], [10000 x i32]* %6, i64 0, i64 %91
  %93 = load i32, i32* %92, align 4
  %94 = sub nsw i32 %89, %93
  %95 = sext i32 %94 to i64
  %96 = getelementptr inbounds [10000 x i32], [10000 x i32]* %6, i64 0, i64 %95
  %97 = load i32, i32* %96, align 4
  %98 = icmp ne i32 %97, 0
  br i1 %98, label %99, label %111

99:                                               ; preds = %88
  %100 = load i32, i32* %2, align 4
  %101 = sext i32 %100 to i64
  %102 = getelementptr inbounds [10000 x i32], [10000 x i32]* %6, i64 0, i64 %101
  %103 = load i32, i32* %102, align 4
  %104 = load i32, i32* %5, align 4
  %105 = load i32, i32* %2, align 4
  %106 = sext i32 %105 to i64
  %107 = getelementptr inbounds [10000 x i32], [10000 x i32]* %6, i64 0, i64 %106
  %108 = load i32, i32* %107, align 4
  %109 = sub nsw i32 %104, %108
  %110 = call i32 (i8*, ...) @printf(i8* getelementptr inbounds ([7 x i8], [7 x i8]* @.str.1, i64 0, i64 0), i32 %103, i32 %109)
  br label %111

111:                                              ; preds = %99, %88, %82
  br label %112

112:                                              ; preds = %111
  %113 = load i32, i32* %2, align 4
  %114 = add nsw i32 %113, 1
  store i32 %114, i32* %2, align 4
  br label %76

115:                                              ; preds = %76
  %116 = load i32, i32* %1, align 4
  ret i32 %116
}

; Function Attrs: argmemonly nounwind willreturn
declare void @llvm.memset.p0i8.i64(i8* nocapture writeonly, i8, i64, i1 immarg) #1

declare dso_local i32 @__isoc99_scanf(i8*, ...) #2

declare dso_local i32 @printf(i8*, ...) #2


!llvm.module.flags = !{!0}
!llvm.ident = !{!1}

!0 = !{i32 1, !"wchar_size", i32 4}
!1 = !{!"clang version 10.0.0-4ubuntu1 "}
